; ModuleID = '50/2201.c'
source_filename = "50/2201.c"
target datalayout = "e-m:e-p270:32:32-p271:32:32-p272:64:64-i64:64-f80:128-n8:16:32:64-S128"
target triple = "x86_64-pc-linux-gnu"

@.str = private unnamed_addr constant [3 x i8] c"%d\00", align 1
@.str.1 = private unnamed_addr constant [4 x i8] c"%d\0A\00", align 1

; Function Attrs: noinline nounwind uwtable
define dso_local i32 @day(i32 %0) #0 {
  %2 = alloca i32, align 4
  store i32 %0, i32* %2, align 4
  %3 = load i32, i32* %2, align 4
  %4 = icmp sgt i32 %3, 7
  br i1 %4, label %5, label %8

5:                                                ; preds = %1
  %6 = load i32, i32* %2, align 4
  %7 = srem i32 %6, 7
  store i32 %7, i32* %2, align 4
  br label %8

8:                                                ; preds = %5, %1
  %9 = load i32, i32* %2, align 4
  ret i32 %9
}

; Function Attrs: noinline nounwind uwtable
define dso_local i32 @main() #0 {
  %1 = alloca i32, align 4
  %2 = alloca [13 x i32], align 16
  %3 = alloca [13 x i32], align 16
  %4 = alloca i32, align 4
  %5 = alloca i32, align 4
  store i32 0, i32* %1, align 4
  %6 = getelementptr inbounds [13 x i32], [13 x i32]* %2, i64 0, i64 1
  %7 = call i32 (i8*, ...) @__isoc99_scanf(i8* getelementptr inbounds ([3 x i8], [3 x i8]* @.str, i64 0, i64 0), i32* %6)
  %8 = getelementptr inbounds [13 x i32], [13 x i32]* %3, i64 0, i64 12
  store i32 31, i32* %8, align 16
  %9 = getelementptr inbounds [13 x i32], [13 x i32]* %3, i64 0, i64 10
  store i32 31, i32* %9, align 8
  %10 = getelementptr inbounds [13 x i32], [13 x i32]* %3, i64 0, i64 8
  store i32 31, i32* %10, align 16
  %11 = getelementptr inbounds [13 x i32], [13 x i32]* %3, i64 0, i64 7
  store i32 31, i32* %11, align 4
  %12 = getelementptr inbounds [13 x i32], [13 x i32]* %3, i64 0, i64 5
  store i32 31, i32* %12, align 4
  %13 = getelementptr inbounds [13 x i32], [13 x i32]* %3, i64 0, i64 3
  store i32 31, i32* %13, align 4
  %14 = getelementptr inbounds [13 x i32], [13 x i32]* %3, i64 0, i64 1
  store i32 31, i32* %14, align 4
  %15 = getelementptr inbounds [13 x i32], [13 x i32]* %3, i64 0, i64 2
  store i32 28, i32* %15, align 8
  %16 = getelementptr inbounds [13 x i32], [13 x i32]* %3, i64 0, i64 11
  store i32 30, i32* %16, align 4
  %17 = getelementptr inbounds [13 x i32], [13 x i32]* %3, i64 0, i64 9
  store i32 30, i32* %17, align 4
  %18 = getelementptr inbounds [13 x i32], [13 x i32]* %3, i64 0, i64 6
  store i32 30, i32* %18, align 8
  %19 = getelementptr inbounds [13 x i32], [13 x i32]* %3, i64 0, i64 4
  store i32 30, i32* %19, align 16
  store i32 2, i32* %4, align 4
  br label %20

20:                                               ; preds = %39, %0
  %21 = load i32, i32* %4, align 4
  %22 = icmp sle i32 %21, 12
  br i1 %22, label %23, label %42

23:                                               ; preds = %20
  %24 = load i32, i32* %4, align 4
  %25 = sub nsw i32 %24, 1
  %26 = sext i32 %25 to i64
  %27 = getelementptr inbounds [13 x i32], [13 x i32]* %3, i64 0, i64 %26
  %28 = load i32, i32* %27, align 4
  %29 = srem i32 %28, 7
  %30 = load i32, i32* %4, align 4
  %31 = sub nsw i32 %30, 1
  %32 = sext i32 %31 to i64
  %33 = getelementptr inbounds [13 x i32], [13 x i32]* %2, i64 0, i64 %32
  %34 = load i32, i32* %33, align 4
  %35 = add nsw i32 %29, %34
  %36 = load i32, i32* %4, align 4
  %37 = sext i32 %36 to i64
  %38 = getelementptr inbounds [13 x i32], [13 x i32]* %2, i64 0, i64 %37
  store i32 %35, i32* %38, align 4
  br label %39

39:                                               ; preds = %23
  %40 = load i32, i32* %4, align 4
  %41 = add nsw i32 %40, 1
  store i32 %41, i32* %4, align 4
  br label %20

42:                                               ; preds = %20
  store i32 1, i32* %4, align 4
  br label %43

43:                                               ; preds = %59, %42
  %44 = load i32, i32* %4, align 4
  %45 = icmp sle i32 %44, 12
  br i1 %45, label %46, label %62

46:                                               ; preds = %43
  %47 = load i32, i32* %4, align 4
  %48 = sext i32 %47 to i64
  %49 = getelementptr inbounds [13 x i32], [13 x i32]* %2, i64 0, i64 %48
  %50 = load i32, i32* %49, align 4
  %51 = add nsw i32 %50, 5
  %52 = call i32 @day(i32 %51)
  store i32 %52, i32* %5, align 4
  %53 = load i32, i32* %5, align 4
  %54 = icmp eq i32 %53, 5
  br i1 %54, label %55, label %58

55:                                               ; preds = %46
  %56 = load i32, i32* %4, align 4
  %57 = call i32 (i8*, ...) @printf(i8* getelementptr inbounds ([4 x i8], [4 x i8]* @.str.1, i64 0, i64 0), i32 %56)
  br label %58

58:                                               ; preds = %55, %46
  br label %59

59:                                               ; preds = %58
  %60 = load i32, i32* %4, align 4
  %61 = add nsw i32 %60, 1
  store i32 %61, i32* %4, align 4
  br label %43

62:                                               ; preds = %43
  %63 = load i32, i32* %1, align 4
  ret i32 %63
}

declare dso_local i32 @__isoc99_scanf(i8*, ...) #1

declare dso_local i32 @printf(i8*, ...) #1


!llvm.module.flags = !{!0}
!llvm.ident = !{!1}

!0 = !{i32 1, !"wchar_size", i32 4}
!1 = !{!"clang version 10.0.0-4ubuntu1 "}
